; Function Attrs: nounwind uwtable
define dso_local range(i32 0, 2) i32 @tls13_export_keying_material(ptr noundef %0, ptr noundef %1, i64 noundef %2, ptr noundef %3, i64 noundef %4, ptr noundef %5, i64 noundef %6, i32 noundef %7) local_unnamed_addr #0 {
  %9 = alloca [64 x i8], align 16
  %10 = alloca [64 x i8], align 16
  %11 = alloca [64 x i8], align 16
  %12 = alloca i32, align 4
  %13 = alloca i32, align 4
  call void @llvm.lifetime.start.p0(i64 64, ptr nonnull %9) #4
  call void @llvm.lifetime.start.p0(i64 64, ptr nonnull %10) #4
  call void @llvm.lifetime.start.p0(i64 64, ptr nonnull %11) #4
  %14 = tail call ptr @ssl_handshake_md(ptr noundef %0) #4
  %15 = tail call ptr @EVP_MD_CTX_new() #4
  call void @llvm.lifetime.start.p0(i64 4, ptr nonnull %12) #4
  call void @llvm.lifetime.start.p0(i64 4, ptr nonnull %13) #4
  %16 = icmp eq ptr %15, null
  %17 = icmp eq ptr %14, null
  %or.cond = select i1 %16, i1 true, i1 %17
  br i1 %or.cond, label %55, label %18

18:                                               ; preds = %8
  %19 = tail call i32 @ossl_statem_export_allowed(ptr noundef %0) #4
  %.not = icmp eq i32 %19, 0
  br i1 %.not, label %55, label %20

20:                                               ; preds = %18
  %21 = tail call i32 @EVP_DigestInit_ex(ptr noundef nonnull %15, ptr noundef nonnull %14, ptr noundef null) #4
  %22 = icmp slt i32 %21, 1
  br i1 %22, label %55, label %23

23:                                               ; preds = %20
  %.not28 = icmp eq i32 %7, 0
  %spec.select = select i1 %.not28, i64 0, i64 %6
  %24 = tail call i32 @EVP_DigestUpdate(ptr noundef nonnull %15, ptr noundef %5, i64 noundef %spec.select) #4
  %25 = icmp slt i32 %24, 1
  br i1 %25, label %55, label %26

26:                                               ; preds = %23
  %27 = call i32 @EVP_DigestFinal_ex(ptr noundef nonnull %15, ptr noundef nonnull %10, ptr noundef nonnull %12) #4
  %28 = icmp slt i32 %27, 1
  br i1 %28, label %55, label %29

29:                                               ; preds = %26
  %30 = call i32 @EVP_DigestInit_ex(ptr noundef nonnull %15, ptr noundef nonnull %14, ptr noundef null) #4
  %31 = icmp slt i32 %30, 1
  br i1 %31, label %55, label %32

32:                                               ; preds = %29
  %33 = call i32 @EVP_DigestFinal_ex(ptr noundef nonnull %15, ptr noundef nonnull %11, ptr noundef nonnull %13) #4
  %34 = icmp slt i32 %33, 1
  br i1 %34, label %55, label %35

35:                                               ; preds = %32
  %36 = getelementptr inbounds nuw i8, ptr %0, i64 2044
  %37 = load i32, ptr %13, align 4, !tbaa !4
  %38 = zext i32 %37 to i64
  %39 = load i32, ptr %12, align 4, !tbaa !4
  %40 = zext i32 %39 to i64
  %41 = getelementptr inbounds nuw i8, ptr %0, i64 8
  %42 = load ptr, ptr %41, align 8, !tbaa !15
  %43 = load ptr, ptr %42, align 8, !tbaa !75
  %44 = getelementptr inbounds nuw i8, ptr %42, i64 1152
  %45 = load ptr, ptr %44, align 8, !tbaa !90
  %46 = call i32 @tls13_hkdf_expand_ex(ptr noundef %43, ptr noundef %45, ptr noundef nonnull %14, ptr noundef nonnull %36, ptr noundef %3, i64 noundef %4, ptr noundef nonnull %11, i64 noundef %38, ptr noundef nonnull %9, i64 noundef %40, i32 noundef 1)
  %.not29 = icmp eq i32 %46, 0
  br i1 %.not29, label %55, label %47

47:                                               ; preds = %35
  %48 = load i32, ptr %12, align 4, !tbaa !4
  %49 = zext i32 %48 to i64
  %50 = load ptr, ptr %41, align 8, !tbaa !15
  %51 = load ptr, ptr %50, align 8, !tbaa !75
  %52 = getelementptr inbounds nuw i8, ptr %50, i64 1152
  %53 = load ptr, ptr %52, align 8, !tbaa !90
  %54 = call i32 @tls13_hkdf_expand_ex(ptr noundef %51, ptr noundef %53, ptr noundef nonnull %14, ptr noundef nonnull %9, ptr noundef nonnull @tls13_export_keying_material.exporterlabel, i64 noundef 8, ptr noundef nonnull %10, i64 noundef %49, ptr noundef %1, i64 noundef %2, i32 noundef 1)
  br label %55

55:                                               ; preds = %47, %20, %23, %26, %29, %32, %35, %8, %18
  %.0 = phi i32 [ 0, %8 ], [ 0, %20 ], [ 0, %23 ], [ 0, %26 ], [ 0, %29 ], [ 0, %32 ], [ 0, %35 ], [ 0, %18 ], [ %54, %47 ]
  call void @EVP_MD_CTX_free(ptr noundef %15) #4
  call void @llvm.lifetime.end.p0(i64 4, ptr nonnull %13) #4
  call void @llvm.lifetime.end.p0(i64 4, ptr nonnull %12) #4
  call void @llvm.lifetime.end.p0(i64 64, ptr nonnull %11) #4
  call void @llvm.lifetime.end.p0(i64 64, ptr nonnull %10) #4
  call void @llvm.lifetime.end.p0(i64 64, ptr nonnull %9) #4
  ret i32 %.0
}